target datalayout = "e-m:e-p270:32:32-p271:32:32-p272:64:64-i64:64-i128:128-f80:128-n8:16:32:64-S128"
target triple = "x86_64-pc-linux-gnu"

%struct.drmp3dec = type { [2 x [288 x float]], [960 x float], i32, i32, [4 x i8], [511 x i8] }
%struct.drmp3_allocation_callbacks = type { ptr, ptr, ptr, ptr }
%struct.drmp3 = type { %struct.drmp3dec, i32, i32, ptr, ptr, ptr, %struct.drmp3_allocation_callbacks, i32, i32, i32, i32, [9216 x i8], i64, i64, ptr, i32, i64, i64, i64, ptr, i8, %struct.anon.61 }
%struct.anon.61 = type { ptr, i64, i64 }

; Function Attrs: nounwind uwtable
define hidden ptr @drmp3_open_file_and_read_pcm_frames_f32(ptr noundef %0, ptr noundef %1, ptr noundef %2, ptr noundef %3) #0 {
  %5 = alloca ptr, align 8
  %6 = alloca ptr, align 8
  %7 = alloca ptr, align 8
  %8 = alloca ptr, align 8
  %9 = alloca ptr, align 8
  %10 = alloca %struct.drmp3, align 8
  %11 = alloca i32, align 4
  store ptr %0, ptr %6, align 8
  store ptr %1, ptr %7, align 8
  store ptr %2, ptr %8, align 8
  store ptr %3, ptr %9, align 8
  call void @llvm.lifetime.start.p0(i64 16064, ptr %10) #21
  %12 = load ptr, ptr %6, align 8
  %13 = load ptr, ptr %9, align 8
  %14 = call i32 @drmp3_init_file(ptr noundef %10, ptr noundef %12, ptr noundef %13)
  %15 = icmp ne i32 %14, 0
  br i1 %15, label %17, label %16

16:                                               ; preds = %4
  store ptr null, ptr %5, align 8
  store i32 1, ptr %11, align 4
  br label %21

17:                                               ; preds = %4
  %18 = load ptr, ptr %7, align 8
  %19 = load ptr, ptr %8, align 8
  %20 = call ptr @drmp3__full_read_and_close_f32(ptr noundef %10, ptr noundef %18, ptr noundef %19)
  store ptr %20, ptr %5, align 8
  store i32 1, ptr %11, align 4
  br label %21

21:                                               ; preds = %17, %16
  call void @llvm.lifetime.end.p0(i64 16064, ptr %10) #21
  %22 = load ptr, ptr %5, align 8
  ret ptr %22
}