; Function Attrs: nounwind uwtable
define hidden ptr @drmp3_open_file_and_read_pcm_frames_f32(ptr noundef captures(address_is_null) %0, ptr noundef captures(address_is_null) %1, ptr noundef captures(address_is_null) %2, ptr noundef captures(address_is_null) %3) local_unnamed_addr #7 {
  %5 = alloca %struct.drmp3, align 8
  call void @llvm.lifetime.start.p0(i64 16064, ptr nonnull %5) #72
  %6 = call i32 @drmp3_init_file(ptr noundef nonnull %5, ptr noundef %0, ptr noundef %3)
  %.not = icmp eq i32 %6, 0
  br i1 %.not, label %9, label %7

7:                                                ; preds = %4
  %8 = call fastcc ptr @drmp3__full_read_and_close_f32(ptr noundef %5, ptr noundef %1, ptr noundef %2)
  br label %9

9:                                                ; preds = %4, %7
  %.0 = phi ptr [ %8, %7 ], [ null, %4 ]
  call void @llvm.lifetime.end.p0(i64 16064, ptr nonnull %5) #72
  ret ptr %.0
}